(lp0
F10.888952
aF10.009447
aF9.569218
aF10.286992
aF10.147171
aF9.450313
aF10.245106
aF10.056089
aF9.62135
aF9.992594
aF9.08098
aF9.327293
aF9.104176
aF9.004992
aF9.4156275
aF8.999018
aF9.062932
aF8.806194
aF8.698264
aF9.088419
aF8.543082
aF8.869559
aF8.627452
aF8.626343
aF8.410167
aF8.397537
aF8.5892315
aF8.345587
aF8.915951
aF8.237015
aF8.638704
aF8.739391
aF8.318088
aF8.403978
aF8.368927
aF7.9663787
aF8.09325
aF8.361272
aF8.30662
aF8.310747
aF7.9451632
aF8.03907
aF8.109652
aF8.265739
aF8.270351
aF8.094069
aF8.138538
aF7.99374
aF8.033808
aF7.92619
aF7.949477
aF8.093176
aF7.8647676
aF7.8980937
aF7.962801
aF7.8301024
aF7.8926425
aF7.934041
aF7.845005
aF7.908968
aF7.901091
aF7.7756863
aF7.8292346
aF7.746161
aF7.824198
aF7.897533
aF7.82586
aF7.81693
aF7.540598
aF7.932971
aF7.561858
aF7.928525
aF7.9241357
aF7.732379
aF7.6975164
aF7.6659274
aF7.7684016
aF7.6017256
aF7.736845
aF7.5946407
aF7.6755815
aF7.6167955
aF7.621032
aF7.8357477
aF7.524643
aF7.4458075
aF7.6937017
aF7.555439
aF7.6387053
aF7.488909
aF7.582163
aF7.8255053
aF7.5492907
aF7.6483736
aF7.582564
aF7.6020393
aF7.505626
aF7.5590935
aF7.552415
aF7.5422316
aF7.532175
aF7.6039042
aF7.62861
aF7.5142627
aF7.389288
aF7.5526586
aF7.4536963
aF7.5211177
aF7.5769477
aF7.499026
aF7.507254
aF7.466918
aF7.66996
aF7.457184
aF7.577815
aF7.4073434
aF7.4432383
aF7.5005703
aF7.4583297
aF7.484265
aF7.469265
aF7.399457
aF7.5940638
aF7.3993745
aF7.434227
aF7.396142
aF7.449405
aF7.378745
aF7.4485283
aF7.4473324
aF7.5522366
aF7.530525
aF7.4088583
aF7.511447
aF7.478424
aF7.360299
aF7.497617
aF7.566291
aF7.3607974
aF7.406884
aF7.5181913
aF7.5097027
aF7.4652452
aF7.5937843
aF7.395085
aF7.5135946
aF7.4922814
aF7.3944874
aF7.353408
aF7.470483
aF7.3944716
aF7.3476553
aF7.424047
aF7.4011607
aF7.6156054
aF7.40705
aF7.389677
aF7.3977294
aF7.3904877
aF7.4348598
aF7.4128523
aF7.47995
aF7.3659534
aF7.5384946
aF7.3685465
aF7.4696274
aF7.429222
aF7.512301
aF7.380043
aF7.4319606
aF7.3646774
aF7.3356028
aF7.481422
aF7.4271593
aF7.357804
aF7.394518
aF7.428405
aF7.379018
aF7.416899
aF7.3872643
aF7.455189
aF7.330638
aF7.355088
aF7.399845
aF7.336677
aF7.4175563
aF7.3216457
aF7.3889036
aF7.402575
aF7.3428454
aF7.4255934
aF7.417989
aF7.3268256
aF7.4894314
aF7.3536396
aF7.3551006
aF7.356256
aF7.396062
aF7.3423567
a.