(lp0
cnumpy.core.multiarray
scalar
p1
(cnumpy
dtype
p2
(S'f4'
p3
I0
I1
tp4
Rp5
(I3
S'<'
p6
NNNI-1
I-1
I0
tp7
bS'N`\xdf@'
p8
tp9
Rp10
ag1
(g5
S'\x90\x05\xa5@'
p11
tp12
Rp13
ag1
(g5
S'\xec\xda\x9f@'
p14
tp15
Rp16
ag1
(g5
S'P\xc7\x93@'
p17
tp18
Rp19
ag1
(g5
S'\xaa\xc0\x93@'
p20
tp21
Rp22
ag1
(g5
S'\t&\x93@'
p23
tp24
Rp25
ag1
(g5
S'\x8c\xc1\x8b@'
p26
tp27
Rp28
ag1
(g5
S'\x97\xe7\x89@'
p29
tp30
Rp31
ag1
(g5
S'&~\x86@'
p32
tp33
Rp34
ag1
(g5
S'r\xf1\x86@'
p35
tp36
Rp37
a.