(lp0
cnumpy.core.multiarray
scalar
p1
(cnumpy
dtype
p2
(S'f4'
p3
I0
I1
tp4
Rp5
(I3
S'<'
p6
NNNI-1
I-1
I0
tp7
bS'\xabY\xdc@'
p8
tp9
Rp10
ag1
(g5
S'\x03K\xa1@'
p11
tp12
Rp13
ag1
(g5
S'?S\xa2@'
p14
tp15
Rp16
ag1
(g5
S'i\x14\x98@'
p17
tp18
Rp19
ag1
(g5
S'\xa7u\x93@'
p20
tp21
Rp22
ag1
(g5
S'W\xef\x8e@'
p23
tp24
Rp25
ag1
(g5
S'\xfd1\x8b@'
p26
tp27
Rp28
ag1
(g5
S'\x92v\x88@'
p29
tp30
Rp31
ag1
(g5
S'\x80J\x86@'
p32
tp33
Rp34
ag1
(g5
S'\xb8\xd2\x83@'
p35
tp36
Rp37
a.