(lp0
cnumpy.core.multiarray
scalar
p1
(cnumpy
dtype
p2
(S'f4'
p3
I0
I1
tp4
Rp5
(I3
S'<'
p6
NNNI-1
I-1
I0
tp7
bS'\xef$\xdb@'
p8
tp9
Rp10
ag1
(g5
S'\xddj\xa4@'
p11
tp12
Rp13
ag1
(g5
S'\xd7\x01\x9d@'
p14
tp15
Rp16
ag1
(g5
S'\xafr\x9b@'
p17
tp18
Rp19
ag1
(g5
S'\x17\x04\xa0@'
p20
tp21
Rp22
ag1
(g5
S'\x97m\x9a@'
p23
tp24
Rp25
ag1
(g5
S'\x17\xbf\x9f@'
p26
tp27
Rp28
ag1
(g5
S'?\xfe\x9a@'
p29
tp30
Rp31
ag1
(g5
S'7h\x97@'
p32
tp33
Rp34
ag1
(g5
S's\x89\x98@'
p35
tp36
Rp37
a.