(lp0
cnumpy.core.multiarray
scalar
p1
(cnumpy
dtype
p2
(S'f4'
p3
I0
I1
tp4
Rp5
(I3
S'<'
p6
NNNI-1
I-1
I0
tp7
bS'`\x91\xdd@'
p8
tp9
Rp10
ag1
(g5
S'-`\xa2@'
p11
tp12
Rp13
ag1
(g5
S'\x06#\xa3@'
p14
tp15
Rp16
ag1
(g5
S'\xad}\x9f@'
p17
tp18
Rp19
ag1
(g5
S'\xe9\xe2\x9e@'
p20
tp21
Rp22
ag1
(g5
S'[\x86\x9a@'
p23
tp24
Rp25
ag1
(g5
S'\xbc\x19\x9b@'
p26
tp27
Rp28
ag1
(g5
S'\xed\x8c\x9a@'
p29
tp30
Rp31
ag1
(g5
S'\x0fk\x99@'
p32
tp33
Rp34
ag1
(g5
S'\x87\xf1\x97@'
p35
tp36
Rp37
a.