(lp0
cnumpy.core.multiarray
scalar
p1
(cnumpy
dtype
p2
(S'f4'
p3
I0
I1
tp4
Rp5
(I3
S'<'
p6
NNNI-1
I-1
I0
tp7
bS')S\xdd@'
p8
tp9
Rp10
ag1
(g5
S'\xcc\xe9\xda@'
p11
tp12
Rp13
ag1
(g5
S'\xbeA\xd8@'
p14
tp15
Rp16
ag1
(g5
S'\xc1\x88\xcf@'
p17
tp18
Rp19
ag1
(g5
S'\x0e\xc1\xb4@'
p20
tp21
Rp22
ag1
(g5
S'\xe8\xf9\xad@'
p23
tp24
Rp25
ag1
(g5
S'\xcb\xb7\xb8@'
p26
tp27
Rp28
ag1
(g5
S'\x8e\x88\xa6@'
p29
tp30
Rp31
ag1
(g5
S'\x0e\xfa\xa6@'
p32
tp33
Rp34
ag1
(g5
S'\n\x92\xa5@'
p35
tp36
Rp37
a.