(lp0
F9.968723
aF8.963337
aF9.471004
aF9.338696
aF9.655996
aF8.894685
aF9.297724
aF8.449825
aF8.890682
aF8.641477
aF8.862275
aF8.518171
aF8.545915
aF8.127022
aF8.337997
aF8.428078
aF8.719821
aF8.206325
aF8.478098
aF8.181208
aF8.213194
aF7.921072
aF7.9262342
aF8.255176
aF8.260337
aF8.15645
aF8.051981
aF7.9594917
aF8.147694
aF8.02051
aF8.170547
aF7.91498
aF8.174404
aF8.21323
aF7.845636
aF8.018743
aF7.942729
aF7.963693
aF7.7233486
aF8.129685
aF7.874222
aF7.990709
aF7.72919
aF7.7918243
aF7.839019
aF7.7584906
aF7.9679585
aF7.761538
aF7.7638826
aF7.6507287
aF7.697807
aF8.073687
aF7.597857
aF7.679848
aF7.789381
aF7.6734443
aF7.661091
aF7.686187
aF7.685735
aF7.4703674
aF7.720276
aF7.5775347
aF7.726914
aF7.5023355
aF7.6478148
aF7.4878397
aF7.6413164
aF7.6253996
aF7.5701237
aF7.585653
aF7.71491
aF7.5400405
aF7.5845075
aF7.4607897
aF7.564841
aF7.517603
aF7.667517
aF7.627244
aF7.5153017
aF7.6469283
aF7.540288
aF7.5137157
aF7.73519
aF7.632337
aF7.64847
aF7.5210595
aF7.488832
aF7.4405923
aF7.6603823
aF7.3683767
aF7.474845
aF7.8317933
aF7.5155344
aF7.471732
aF7.4999547
aF7.5091124
aF7.5805483
aF7.532404
aF7.622415
aF7.4875555
aF7.295561
aF7.6680856
aF7.440117
aF7.6403837
aF7.402445
aF7.5659847
aF7.416531
aF7.530036
aF7.459751
aF7.535839
aF7.446824
aF7.5188065
aF7.3596725
aF7.371619
aF7.5765705
aF7.4697733
aF7.506752
aF7.509802
aF7.3966804
aF7.416403
aF7.518135
aF7.413359
aF7.478487
aF7.4850626
aF7.3630877
aF7.4845524
aF7.568324
aF7.438632
aF7.3938417
aF7.4008684
aF7.284589
aF7.397789
aF7.366868
aF7.3657837
aF7.4860353
aF7.5039086
aF7.346265
aF7.3614225
aF7.361101
aF7.487573
aF7.357604
aF7.3997974
aF7.401544
aF7.383462
aF7.2927732
aF7.4097686
aF7.3604207
aF7.443233
aF7.3507333
aF7.333104
aF7.3131948
aF7.4163947
aF7.451347
aF7.4329634
aF7.3331833
aF7.35514
aF7.3557854
aF7.3539543
aF7.380143
aF7.459925
aF7.3240047
aF7.358918
aF7.3888183
aF7.3464813
aF7.349285
aF7.380153
aF7.385709
aF7.310931
aF7.3537407
aF7.3955703
aF7.392747
aF7.3983464
aF7.4485865
aF7.372548
aF7.375594
aF7.3576794
aF7.4596453
aF7.359394
aF7.3258295
aF7.3311267
aF7.3268757
aF7.339776
aF7.341799
aF7.4115
aF7.3670125
aF7.3079014
aF7.372277
aF7.4580765
aF7.3164716
aF7.4048676
aF7.457726
aF7.3525925
aF7.446612
aF7.3880053
aF7.360176
aF7.3593245
aF7.338019
aF7.3477397
aF7.3234525
a.