(lp0
F9.677681799357932
aF8.44983909028092
aF7.983138127719591
aF7.863580365722324
aF7.77035635
aF7.553845266254249
aF7.684253364899906
aF7.526403135902605
aF7.415084693231958
aF7.556000779995083
aF7.521835245881748
aF7.2814557916312515
aF7.310476475510252
aF7.259646635366348
aF7.213363928711021
aF7.296755082884642
aF7.367184425393682
aF7.158246125830786
aF7.275923142966391
aF7.289102888547349
aF7.350519176562721
aF7.339969481372162
aF7.271465283787614
aF7.3448994590582295
aF7.2342898267793565
aF7.207195244506466
aF7.347889927260631
aF7.2116816134278325
aF7.222608407980244
aF7.203933306218779
aF7.264457534565916
aF7.227041634883345
aF7.301410336488558
aF7.381376421289707
aF7.19925332556107
aF7.173753265210069
aF7.252091568096204
aF7.205381313795813
aF7.272873721758424
aF7.2104743270654055
aF7.356412290459933
aF7.110918748865079
aF7.163086309636954
aF7.222557366806199
aF7.203911673595082
aF7.315655143840139
aF7.273236997599093
aF7.151331176364233
aF7.23647952858948
aF7.215472071130873
aF7.14226769088848
aF7.292976989716566
aF7.2657461384910205
aF7.299025582446691
aF7.242276405371645
aF7.213177375414358
aF7.323991571657975
aF7.3047964635797475
aF7.216355301083084
aF7.185489381866689
aF7.217332816545
aF7.125161054153759
aF7.167589099904378
aF7.257014316945531
aF7.182413164772266
aF7.114882100389347
aF7.136662059550697
aF7.195817800285784
aF7.217006432979109
aF7.199043624567313
aF7.216594351702049
aF7.264464751234561
aF7.279167735010739
aF7.3084704167370225
aF7.112133647981189
aF7.295923475788571
aF7.2007225437805245
aF7.286069970255311
aF7.219593431444865
aF7.135708976063565
aF7.14652810501465
aF7.2270307944178604
aF7.207577359747917
aF7.086082655587855
aF7.23238409429724
aF7.2017890801178055
aF7.34553484139421
aF7.107405757801836
aF7.240648847695144
aF7.136754292987798
aF7.247665097029503
aF7.252005585366766
aF7.071428695135053
aF7.1294149521166545
aF7.281535000369606
aF7.248172764522241
aF7.16521457203081
aF7.317859088840715
aF7.072055355983386
aF7.156246219848497
aF7.243397837239274
aF7.174291839887911
aF7.12665800808844
aF7.107405418367497
aF7.238568388133366
aF7.225016498199789
aF7.215102583548126
aF7.201545768241651
aF7.291115712798867
aF7.121472401461453
aF7.209269625921569
aF7.099285971590568
aF7.030738590808604
aF7.184850578588342
aF7.171269778752005
aF7.181498525774867
aF7.114395235467325
aF7.248801103292973
aF7.252357464289328
aF7.151623008209686
aF7.0194694272060305
aF7.141043031947873
aF7.169030594326954
aF7.060936939841983
aF7.257760686150268
aF7.2588870197624775
aF7.243279558359527
aF7.24040477163319
aF7.168148390481825
aF7.168799673432009
aF7.14002444573598
aF7.11236289624448
aF7.201665699952844
aF7.160984921495659
aF7.137597084251044
aF7.258821268848527
aF7.17356656889782
aF7.211649294457294
aF7.035167758249054
aF7.1921414630489195
aF7.25406130026287
aF7.160670802739638
aF7.1341956731682705
aF7.097400894957096
aF7.13554815885272
aF7.170465928785807
aF7.040935240871658
aF7.257562987301
aF7.12933707254842
aF7.26937693540045
aF7.0917457050968915
aF7.177901599835179
aF7.203192750352316
aF7.201616226021954
aF7.134652483737176
aF7.227431488152862
aF7.055217055982876
aF7.133608545928197
aF7.179669046177595
aF7.167663305618594
aF7.140973076011582
aF7.08201523846182
aF7.066689501813539
aF7.1257360777073755
aF7.0877840682386815
aF7.033233092019455
aF7.098530510075226
aF7.0676515443091255
aF7.145026843167683
aF7.101152856609292
aF7.087479034320362
aF7.006079653122896
aF7.03502197208064
aF7.070452283179139
aF7.223692114779363
aF7.088931046560742
aF7.089417159818789
aF7.0093781849155175
aF6.946717304945884
aF7.071030217464477
aF7.231459602285507
aF7.020081739500999
aF7.070446565294585
aF7.193928062198358
aF7.056482009806441
aF7.12928924739297
aF7.041762784551583
aF6.989972911756718
aF7.010221984323691
aF7.00319979224037
aF7.1807516909364875
aF7.0038071144716945
aF7.143535667246932
aF7.057420184986092
aF7.0984295646670175
aF7.166439176346891
aF7.148210237374099
aF7.118479070959451
aF6.992560732588896
a.