(lp0
F9.8532117
aF8.595712599999999
aF7.88089422
aF7.8093904
aF7.6442732
aF7.5661741
aF7.5631922099999995
aF7.48476816
aF7.44294111
aF7.495070199999999
aF7.476523149999999
aF7.419437799999999
aF7.4002336500000006
aF7.35418112
aF7.292371059999999
aF7.433283299999999
aF7.39374361
aF7.34070145
aF7.35362257
aF7.3551898
aF7.32914791
aF7.34944949
aF7.30193928
aF7.31042858
aF7.353636509999999
aF7.304110209999999
aF7.3288215999999995
aF7.302743919999999
aF7.305341649999999
aF7.305499599999999
aF7.36413874
aF7.3440213
aF7.360416799999999
aF7.340969739999999
aF7.29588588
aF7.2924869999999995
aF7.32717864
aF7.32352812
aF7.32831975
aF7.2765734
aF7.3075757999999995
aF7.28688818
aF7.28553054
aF7.2735882
aF7.309576509999999
aF7.30839748
aF7.31646737
aF7.29011792
aF7.274475649999999
aF7.3300291
aF7.27533829
aF7.289990899999999
aF7.2978739
aF7.3035033899999995
aF7.282805659999999
aF7.291302009999999
aF7.2869696
aF7.300805499999999
aF7.2635999999999985
aF7.2607897999999995
aF7.296835079999999
aF7.278212009999999
aF7.309581639999999
aF7.258647249999999
aF7.271227949999999
aF7.25554164
aF7.308068269999999
aF7.2582837
aF7.2667793199999995
aF7.2573132099999995
aF7.28023696
aF7.29464973
aF7.278779699999999
aF7.2808496499999995
aF7.2678521499999995
aF7.28299764
aF7.256971979999999
aF7.28030536
aF7.25894802
aF7.251876879999999
aF7.258530739999999
aF7.25155807
aF7.26136945
aF7.228581779999999
aF7.270442519999999
aF7.286828519999999
aF7.277256029999999
aF7.2322957
aF7.25989642
aF7.25586805
aF7.2744616099999995
aF7.243975839999999
aF7.25489596
aF7.25928919
aF7.2597289
aF7.25883818
aF7.24167074
aF7.276709159999999
aF7.25086791
aF7.2167666
aF7.236152519999999
aF7.225264609999999
aF7.211967629999999
aF7.224974799999999
aF7.208153210000001
aF7.25835472
aF7.2442481
aF7.2393526999999995
aF7.233178069999999
aF7.23554645
aF7.2491335999999995
aF7.23893131
aF7.225332389999999
aF7.21473411
aF7.239600759999999
aF7.2389744799999995
aF7.2278525899999995
aF7.243037299999999
aF7.25155341
aF7.210702789999999
aF7.215475849999999
aF7.22014424
aF7.2415451
aF7.220528269999999
aF7.245848219999999
aF7.2288565899999995
aF7.2564832
aF7.213613489999999
aF7.228014879999999
aF7.264999749999999
aF7.223394279999999
aF7.2061632200000005
aF7.230146209999999
aF7.223339849999999
aF7.232819599999999
aF7.258457579999999
aF7.204141699999999
aF7.224992589999999
aF7.2321620499999995
aF7.230403189999999
aF7.23128295
aF7.20820292
aF7.192452469999999
aF7.2145046
aF7.1846817
aF7.2003838
aF7.2188204
aF7.2131182
aF7.2132948
aF7.217743
aF7.19935059
aF7.2237709
aF7.2167433
aF7.19992462
aF7.2062409
aF7.21943385
aF7.22009093
aF7.18793887
aF7.19703073
aF7.22798965
aF7.19709237
aF7.1571984099999995
aF7.207916149999999
aF7.199028869999999
aF7.196597199999999
aF7.20361607
aF7.19733645
aF7.176180729999999
aF7.16534891
aF7.2212266
aF7.1978086
aF7.235889799999999
aF7.1880690099999995
aF7.2124217999999995
aF7.20927197
aF7.20612387
aF7.207799799999999
aF7.17252218
aF7.16600371
aF7.19087869
aF7.20634588
aF7.19617635
aF7.200773079999999
aF7.179181099999999
aF7.18431385
aF7.1695661799999995
aF7.167439999999999
aF7.17849228
aF7.2264477
aF7.194982199999998
aF7.1899739
aF7.160161799999999
aF7.18714546
aF7.17702821
aF7.17541901
aF7.18232295
aF7.19445705
aF7.146012
aF7.19574713
a.